; Function Attrs: nounwind uwtable
define ptr @l_Lean_mkLabelExt___lambda__1(ptr noundef %0, ptr noundef %1) #0 {
  %3 = tail call zeroext i8 @l_Array_contains___at_Lean_registerInternalExceptionId___spec__1(ptr noundef %0, ptr noundef %1) #6
  %4 = icmp eq i8 %3, 0
  br i1 %4, label %5, label %7

5:                                                ; preds = %2
  %6 = tail call ptr @lean_array_push(ptr noundef %0, ptr noundef %1) #6
  br label %lean_dec.exit

7:                                                ; preds = %2
  %8 = ptrtoint ptr %1 to i64
  %9 = and i64 %8, 1
  %.not = icmp eq i64 %9, 0
  br i1 %.not, label %10, label %lean_dec.exit

10:                                               ; preds = %7
  %11 = load i32, ptr %1, align 4, !tbaa !8
  %12 = icmp sgt i32 %11, 1
  br i1 %12, label %13, label %15, !prof !11

13:                                               ; preds = %10
  %14 = add nsw i32 %11, -1
  store i32 %14, ptr %1, align 4, !tbaa !8
  br label %lean_dec.exit

15:                                               ; preds = %10
  %.not.i = icmp eq i32 %11, 0
  br i1 %.not.i, label %lean_dec.exit, label %16

16:                                               ; preds = %15
  tail call void @lean_dec_ref_cold(ptr noundef nonnull %1) #6
  br label %lean_dec.exit

lean_dec.exit:                                    ; preds = %7, %13, %15, %16, %5
  %.0 = phi ptr [ %6, %5 ], [ %0, %16 ], [ %0, %15 ], [ %0, %13 ], [ %0, %7 ]
  ret ptr %.0
}